; Function Attrs: mustprogress nounwind uwtable
define hidden void @_ZN11Annotations13free_contentsEP15ClassLoaderDataP5ArrayIPS2_IhEE(ptr noundef %0, ptr noundef %1) local_unnamed_addr #0 align 2 {
  %.not = icmp eq ptr %1, null
  br i1 %.not, label %22, label %.preheader

.preheader:                                       ; preds = %2
  %3 = load i32, ptr %1, align 8
  %4 = icmp sgt i32 %3, 0
  br i1 %4, label %.lr.ph, label %_ZN15MetadataFactory10free_arrayIP5ArrayIhEEEvP15ClassLoaderDataPS1_IT_E.exit

.lr.ph:                                           ; preds = %.preheader
  %5 = getelementptr inbounds i8, ptr %1, i64 8
  br label %6

6:                                                ; preds = %.lr.ph, %_ZN15MetadataFactory10free_arrayIhEEvP15ClassLoaderDataP5ArrayIT_E.exit
  %7 = phi i32 [ %3, %.lr.ph ], [ %16, %_ZN15MetadataFactory10free_arrayIhEEvP15ClassLoaderDataP5ArrayIT_E.exit ]
  %indvars.iv = phi i64 [ 0, %.lr.ph ], [ %indvars.iv.next, %_ZN15MetadataFactory10free_arrayIhEEvP15ClassLoaderDataP5ArrayIT_E.exit ]
  %8 = getelementptr inbounds ptr, ptr %5, i64 %indvars.iv
  %9 = load ptr, ptr %8, align 8
  %.not.i = icmp eq ptr %9, null
  br i1 %.not.i, label %_ZN15MetadataFactory10free_arrayIhEEvP15ClassLoaderDataP5ArrayIT_E.exit, label %10

10:                                               ; preds = %6
  %11 = load i32, ptr %9, align 4
  %12 = tail call i32 @llvm.smax.i32(i32 %11, i32 1)
  %narrow.i.i.i = add nuw i32 %12, 14
  %13 = lshr i32 %narrow.i.i.i, 3
  %14 = tail call noundef ptr @_ZN15ClassLoaderData18metaspace_non_nullEv(ptr noundef nonnull align 8 dereferenceable(160) %0) #7
  %15 = zext nneg i32 %13 to i64
  tail call void @_ZN20ClassLoaderMetaspace10deallocateEPP12MetaWordImplmb(ptr noundef nonnull align 8 dereferenceable(32) %14, ptr noundef nonnull %9, i64 noundef %15, i1 noundef zeroext false) #7
  %.pre = load i32, ptr %1, align 8
  br label %_ZN15MetadataFactory10free_arrayIhEEvP15ClassLoaderDataP5ArrayIT_E.exit

_ZN15MetadataFactory10free_arrayIhEEvP15ClassLoaderDataP5ArrayIT_E.exit: ; preds = %6, %10
  %16 = phi i32 [ %7, %6 ], [ %.pre, %10 ]
  %indvars.iv.next = add nuw nsw i64 %indvars.iv, 1
  %17 = sext i32 %16 to i64
  %18 = icmp slt i64 %indvars.iv.next, %17
  br i1 %18, label %6, label %_ZN15MetadataFactory10free_arrayIP5ArrayIhEEEvP15ClassLoaderDataPS1_IT_E.exit, !llvm.loop !6

_ZN15MetadataFactory10free_arrayIP5ArrayIhEEEvP15ClassLoaderDataPS1_IT_E.exit: ; preds = %_ZN15MetadataFactory10free_arrayIhEEvP15ClassLoaderDataP5ArrayIT_E.exit, %.preheader
  %.lcssa = phi i32 [ %3, %.preheader ], [ %16, %_ZN15MetadataFactory10free_arrayIhEEvP15ClassLoaderDataP5ArrayIT_E.exit ]
  %19 = tail call i32 @llvm.smax.i32(i32 %.lcssa, i32 1)
  %narrow.i.i.i10 = add nuw i32 %19, 1
  %20 = tail call noundef ptr @_ZN15ClassLoaderData18metaspace_non_nullEv(ptr noundef nonnull align 8 dereferenceable(160) %0) #7
  %21 = sext i32 %narrow.i.i.i10 to i64
  tail call void @_ZN20ClassLoaderMetaspace10deallocateEPP12MetaWordImplmb(ptr noundef nonnull align 8 dereferenceable(32) %20, ptr noundef nonnull %1, i64 noundef %21, i1 noundef zeroext false) #7
  br label %22

22:                                               ; preds = %_ZN15MetadataFactory10free_arrayIP5ArrayIhEEEvP15ClassLoaderDataPS1_IT_E.exit, %2
  ret void
}